target datalayout = "e-m:e-p270:32:32-p271:32:32-p272:64:64-i64:64-i128:128-f80:128-n8:16:32:64-S128"
target triple = "x86_64-pc-linux-gnu"

%struct.lua_TValue = type { %union.Value, [1 x i32], i32 }
%union.Value = type { ptr }

; Function Attrs: mustprogress nounwind uwtable
define internal noundef i32 @_ZL9luauF_powP9lua_StateP10lua_TValueS2_iS2_i(ptr noundef %0, ptr noundef %1, ptr noundef %2, i32 noundef %3, ptr noundef %4, i32 noundef %5) #0 {
  %7 = alloca i32, align 4
  %8 = alloca ptr, align 8
  %9 = alloca ptr, align 8
  %10 = alloca ptr, align 8
  %11 = alloca i32, align 4
  %12 = alloca ptr, align 8
  %13 = alloca i32, align 4
  %14 = alloca double, align 8
  %15 = alloca double, align 8
  %16 = alloca ptr, align 8
  store ptr %0, ptr %8, align 8, !tbaa !4
  store ptr %1, ptr %9, align 8, !tbaa !9
  store ptr %2, ptr %10, align 8, !tbaa !9
  store i32 %3, ptr %11, align 4, !tbaa !11
  store ptr %4, ptr %12, align 8, !tbaa !9
  store i32 %5, ptr %13, align 4, !tbaa !11
  %17 = load i32, ptr %13, align 4, !tbaa !11
  %18 = icmp sge i32 %17, 2
  br i1 %18, label %19, label %47

19:                                               ; preds = %6
  %20 = load i32, ptr %11, align 4, !tbaa !11
  %21 = icmp sle i32 %20, 1
  br i1 %21, label %22, label %47

22:                                               ; preds = %19
  %23 = load ptr, ptr %10, align 8, !tbaa !9
  %24 = getelementptr inbounds nuw %struct.lua_TValue, ptr %23, i32 0, i32 2
  %25 = load i32, ptr %24, align 4, !tbaa !13
  %26 = icmp eq i32 %25, 3
  br i1 %26, label %27, label %47

27:                                               ; preds = %22
  %28 = load ptr, ptr %12, align 8, !tbaa !9
  %29 = getelementptr inbounds nuw %struct.lua_TValue, ptr %28, i32 0, i32 2
  %30 = load i32, ptr %29, align 4, !tbaa !13
  %31 = icmp eq i32 %30, 3
  br i1 %31, label %32, label %47

32:                                               ; preds = %27
  call void @llvm.lifetime.start.p0(i64 8, ptr %14) #17
  %33 = load ptr, ptr %10, align 8, !tbaa !9
  %34 = getelementptr inbounds nuw %struct.lua_TValue, ptr %33, i32 0, i32 0
  %35 = load double, ptr %34, align 8, !tbaa !15
  store double %35, ptr %14, align 8, !tbaa !16
  call void @llvm.lifetime.start.p0(i64 8, ptr %15) #17
  %36 = load ptr, ptr %12, align 8, !tbaa !9
  %37 = getelementptr inbounds nuw %struct.lua_TValue, ptr %36, i32 0, i32 0
  %38 = load double, ptr %37, align 8, !tbaa !15
  store double %38, ptr %15, align 8, !tbaa !16
  call void @llvm.lifetime.start.p0(i64 8, ptr %16) #17
  %39 = load ptr, ptr %9, align 8, !tbaa !9
  store ptr %39, ptr %16, align 8, !tbaa !9
  %40 = load double, ptr %14, align 8, !tbaa !16
  %41 = load double, ptr %15, align 8, !tbaa !16
  %42 = call double @llvm.pow.f64(double %40, double %41)
  %43 = load ptr, ptr %16, align 8, !tbaa !9
  %44 = getelementptr inbounds nuw %struct.lua_TValue, ptr %43, i32 0, i32 0
  store double %42, ptr %44, align 8, !tbaa !15
  %45 = load ptr, ptr %16, align 8, !tbaa !9
  %46 = getelementptr inbounds nuw %struct.lua_TValue, ptr %45, i32 0, i32 2
  store i32 3, ptr %46, align 4, !tbaa !13
  call void @llvm.lifetime.end.p0(i64 8, ptr %16) #17
  store i32 1, ptr %7, align 4
  call void @llvm.lifetime.end.p0(i64 8, ptr %15) #17
  call void @llvm.lifetime.end.p0(i64 8, ptr %14) #17
  br label %48

47:                                               ; preds = %27, %22, %19, %6
  store i32 -1, ptr %7, align 4
  br label %48

48:                                               ; preds = %47, %32
  %49 = load i32, ptr %7, align 4
  ret i32 %49
}